; Function Attrs: uwtable
define noundef nonnull ptr @_ZTv0_n248_N29colvarbias_restraint_k_moving10write_trajERSo(ptr nocapture noundef readonly %0, ptr noundef nonnull returned align 8 dereferenceable(8) %1) unnamed_addr #3 align 2 {
  %3 = load ptr, ptr %0, align 8
  %4 = getelementptr inbounds i8, ptr %3, i64 -248
  %5 = load i64, ptr %4, align 8
  %6 = getelementptr inbounds i8, ptr %0, i64 %5
  %7 = load ptr, ptr %6, align 8
  %8 = getelementptr i8, ptr %7, i64 -168
  %9 = load i64, ptr %8, align 8
  %10 = getelementptr inbounds i8, ptr %6, i64 %9
  %11 = getelementptr inbounds i8, ptr %10, i64 9
  %12 = load i8, ptr %11, align 1
  %13 = trunc i8 %12 to i1
  br i1 %13, label %14, label %_ZN29colvarbias_restraint_k_moving10write_trajERSo.exit

14:                                               ; preds = %2
  %15 = getelementptr i8, ptr %7, i64 -40
  %16 = load i64, ptr %15, align 8
  %17 = getelementptr inbounds i8, ptr %6, i64 %16
  %18 = getelementptr inbounds i8, ptr %17, i64 48
  %19 = load ptr, ptr %18, align 8
  %20 = getelementptr inbounds i8, ptr %19, i64 193
  %21 = load i8, ptr %20, align 1
  %22 = trunc i8 %21 to i1
  br i1 %22, label %23, label %_ZN29colvarbias_restraint_k_moving10write_trajERSo.exit

23:                                               ; preds = %14
  %24 = tail call noundef nonnull align 8 dereferenceable(8) ptr @_ZStlsISt11char_traitsIcEERSt13basic_ostreamIcT_ES5_PKc(ptr noundef nonnull align 8 dereferenceable(8) %1, ptr noundef nonnull @.str.44)
  %25 = load i64, ptr @_ZN12colvarmodule7en_precE, align 8
  %26 = trunc i64 %25 to i32
  %27 = tail call noundef nonnull align 8 dereferenceable(8) ptr @_ZStlsIcSt11char_traitsIcEERSt13basic_ostreamIT_T0_ES6_St13_Setprecision(ptr noundef nonnull align 8 dereferenceable(8) %24, i32 %26)
  %28 = load i64, ptr @_ZN12colvarmodule8en_widthE, align 8
  %29 = trunc i64 %28 to i32
  %30 = tail call noundef nonnull align 8 dereferenceable(8) ptr @_ZStlsIcSt11char_traitsIcEERSt13basic_ostreamIT_T0_ES6_St5_Setw(ptr noundef nonnull align 8 dereferenceable(8) %27, i32 %29)
  %31 = load ptr, ptr %6, align 8
  %32 = getelementptr i8, ptr %31, i64 -168
  %33 = load i64, ptr %32, align 8
  %34 = getelementptr inbounds i8, ptr %6, i64 %33
  %35 = getelementptr inbounds i8, ptr %34, i64 64
  %36 = load double, ptr %35, align 8
  %37 = tail call noundef nonnull align 8 dereferenceable(8) ptr @_ZNSolsEd(ptr noundef nonnull align 8 dereferenceable(8) %30, double noundef %36)
  br label %_ZN29colvarbias_restraint_k_moving10write_trajERSo.exit

_ZN29colvarbias_restraint_k_moving10write_trajERSo.exit: ; preds = %2, %14, %23
  ret ptr %1
}